target datalayout = "e-m:e-p270:32:32-p271:32:32-p272:64:64-i64:64-i128:128-f80:128-n8:16:32:64-S128"
target triple = "x86_64-pc-linux-gnu"

@_ZN28dtObstacleAvoidanceDebugDataC1Ev = unnamed_addr alias void (ptr), ptr @_ZN28dtObstacleAvoidanceDebugDataC2Ev

; Function Attrs: mustprogress uwtable
define noundef ptr @_Z33dtAllocObstacleAvoidanceDebugDatav() #0 {
  %1 = alloca ptr, align 8
  %2 = alloca ptr, align 8
  %3 = call noundef ptr @_Z7dtAllocm11dtAllocHint(i64 noundef 64, i32 noundef 0)
  store ptr %3, ptr %2, align 8
  %4 = load ptr, ptr %2, align 8
  %5 = icmp ne ptr %4, null
  br i1 %5, label %7, label %6

6:                                                ; preds = %0
  store ptr null, ptr %1, align 8
  br label %9

7:                                                ; preds = %0
  %8 = load ptr, ptr %2, align 8
  call void @_ZN28dtObstacleAvoidanceDebugDataC1Ev(ptr noundef nonnull align 8 dereferenceable(64) %8)
  store ptr %8, ptr %1, align 8
  br label %9

9:                                                ; preds = %7, %6
  %10 = load ptr, ptr %1, align 8
  ret ptr %10
}